target datalayout = "e-m:e-p270:32:32-p271:32:32-p272:64:64-i64:64-i128:128-f80:128-n8:16:32:64-S128"
target triple = "x86_64-pc-linux-gnu"

%struct.KINMemRec = type { double, ptr, ptr, double, double, i32, i32, i64, i64, i64, i64, i32, i32, i32, i32, i32, i32, i32, i32, i32, double, double, double, double, double, double, double, double, double, i32, double, i64, i64, i64, i64, i64, i64, i64, ptr, ptr, ptr, ptr, ptr, ptr, ptr, ptr, ptr, ptr, ptr, ptr, ptr, ptr, ptr, ptr, ptr, ptr, i64, i32, i32, i64, i64, i64, i64, ptr, ptr, ptr, ptr, i32, ptr, double, double, double, double, double, i32, double, double, double, i32, ptr, ptr, ptr, ptr, ptr, ptr }
%struct.KINDlsMemRec = type { i32, i64, i64, i64, i64, i32, ptr, ptr, ptr, ptr, ptr, ptr, i64, i64, i64 }

; Function Attrs: nounwind uwtable
define internal i32 @kinBandSetup(ptr noundef %0) #0 {
  %2 = alloca i32, align 4
  %3 = alloca ptr, align 8
  %4 = alloca ptr, align 8
  %5 = alloca i32, align 4
  %6 = alloca i64, align 8
  %7 = alloca i32, align 4
  store ptr %0, ptr %3, align 8, !tbaa !9
  call void @llvm.lifetime.start.p0(i64 8, ptr %4) #5
  call void @llvm.lifetime.start.p0(i64 4, ptr %5) #5
  call void @llvm.lifetime.start.p0(i64 8, ptr %6) #5
  %8 = load ptr, ptr %3, align 8, !tbaa !9
  %9 = getelementptr inbounds nuw %struct.KINMemRec, ptr %8, i32 0, i32 68
  %10 = load ptr, ptr %9, align 8, !tbaa !47
  store ptr %10, ptr %4, align 8, !tbaa !28
  %11 = load ptr, ptr %4, align 8, !tbaa !28
  %12 = getelementptr inbounds nuw %struct.KINDlsMemRec, ptr %11, i32 0, i32 12
  %13 = load i64, ptr %12, align 8, !tbaa !48
  %14 = add nsw i64 %13, 1
  store i64 %14, ptr %12, align 8, !tbaa !48
  %15 = load ptr, ptr %4, align 8, !tbaa !28
  %16 = getelementptr inbounds nuw %struct.KINDlsMemRec, ptr %15, i32 0, i32 9
  %17 = load ptr, ptr %16, align 8, !tbaa !44
  call void @SetToZero(ptr noundef %17)
  %18 = load ptr, ptr %4, align 8, !tbaa !28
  %19 = getelementptr inbounds nuw %struct.KINDlsMemRec, ptr %18, i32 0, i32 7
  %20 = load ptr, ptr %19, align 8, !tbaa !36
  %21 = load ptr, ptr %4, align 8, !tbaa !28
  %22 = getelementptr inbounds nuw %struct.KINDlsMemRec, ptr %21, i32 0, i32 1
  %23 = load i64, ptr %22, align 8, !tbaa !40
  %24 = load ptr, ptr %4, align 8, !tbaa !28
  %25 = getelementptr inbounds nuw %struct.KINDlsMemRec, ptr %24, i32 0, i32 3
  %26 = load i64, ptr %25, align 8, !tbaa !42
  %27 = load ptr, ptr %4, align 8, !tbaa !28
  %28 = getelementptr inbounds nuw %struct.KINDlsMemRec, ptr %27, i32 0, i32 2
  %29 = load i64, ptr %28, align 8, !tbaa !41
  %30 = load ptr, ptr %3, align 8, !tbaa !9
  %31 = getelementptr inbounds nuw %struct.KINMemRec, ptr %30, i32 0, i32 38
  %32 = load ptr, ptr %31, align 8, !tbaa !52
  %33 = load ptr, ptr %3, align 8, !tbaa !9
  %34 = getelementptr inbounds nuw %struct.KINMemRec, ptr %33, i32 0, i32 40
  %35 = load ptr, ptr %34, align 8, !tbaa !53
  %36 = load ptr, ptr %4, align 8, !tbaa !28
  %37 = getelementptr inbounds nuw %struct.KINDlsMemRec, ptr %36, i32 0, i32 9
  %38 = load ptr, ptr %37, align 8, !tbaa !44
  %39 = load ptr, ptr %4, align 8, !tbaa !28
  %40 = getelementptr inbounds nuw %struct.KINDlsMemRec, ptr %39, i32 0, i32 8
  %41 = load ptr, ptr %40, align 8, !tbaa !37
  %42 = load ptr, ptr %3, align 8, !tbaa !9
  %43 = getelementptr inbounds nuw %struct.KINMemRec, ptr %42, i32 0, i32 46
  %44 = load ptr, ptr %43, align 8, !tbaa !11
  %45 = load ptr, ptr %3, align 8, !tbaa !9
  %46 = getelementptr inbounds nuw %struct.KINMemRec, ptr %45, i32 0, i32 47
  %47 = load ptr, ptr %46, align 8, !tbaa !54
  %48 = call i32 %20(i64 noundef %23, i64 noundef %26, i64 noundef %29, ptr noundef %32, ptr noundef %35, ptr noundef %38, ptr noundef %41, ptr noundef %44, ptr noundef %47)
  store i32 %48, ptr %5, align 4, !tbaa !55
  %49 = load i32, ptr %5, align 4, !tbaa !55
  %50 = icmp ne i32 %49, 0
  br i1 %50, label %51, label %54

51:                                               ; preds = %1
  %52 = load ptr, ptr %4, align 8, !tbaa !28
  %53 = getelementptr inbounds nuw %struct.KINDlsMemRec, ptr %52, i32 0, i32 14
  store i64 -1, ptr %53, align 8, !tbaa !38
  store i32 -1, ptr %2, align 4
  store i32 1, ptr %7, align 4
  br label %69

54:                                               ; preds = %1
  %55 = load ptr, ptr %4, align 8, !tbaa !28
  %56 = getelementptr inbounds nuw %struct.KINDlsMemRec, ptr %55, i32 0, i32 9
  %57 = load ptr, ptr %56, align 8, !tbaa !44
  %58 = load ptr, ptr %4, align 8, !tbaa !28
  %59 = getelementptr inbounds nuw %struct.KINDlsMemRec, ptr %58, i32 0, i32 11
  %60 = load ptr, ptr %59, align 8, !tbaa !45
  %61 = call i64 @BandGBTRF(ptr noundef %57, ptr noundef %60)
  store i64 %61, ptr %6, align 8, !tbaa !7
  %62 = load i64, ptr %6, align 8, !tbaa !7
  %63 = load ptr, ptr %4, align 8, !tbaa !28
  %64 = getelementptr inbounds nuw %struct.KINDlsMemRec, ptr %63, i32 0, i32 14
  store i64 %62, ptr %64, align 8, !tbaa !38
  %65 = load i64, ptr %6, align 8, !tbaa !7
  %66 = icmp sgt i64 %65, 0
  br i1 %66, label %67, label %68

67:                                               ; preds = %54
  store i32 -1, ptr %2, align 4
  store i32 1, ptr %7, align 4
  br label %69

68:                                               ; preds = %54
  store i32 0, ptr %2, align 4
  store i32 1, ptr %7, align 4
  br label %69

69:                                               ; preds = %68, %67, %51
  call void @llvm.lifetime.end.p0(i64 8, ptr %6) #5
  call void @llvm.lifetime.end.p0(i64 4, ptr %5) #5
  call void @llvm.lifetime.end.p0(i64 8, ptr %4) #5
  %70 = load i32, ptr %2, align 4
  ret i32 %70
}