; Function Attrs: nounwind uwtable
define internal range(i32 -1, 1) i32 @kinBandSetup(ptr noundef readonly captures(none) %0) #0 {
  %2 = getelementptr inbounds nuw i8, ptr %0, i64 496
  %3 = load ptr, ptr %2, align 8, !tbaa !39
  %4 = getelementptr inbounds nuw i8, ptr %3, i64 96
  %5 = load i64, ptr %4, align 8, !tbaa !44
  %6 = add nsw i64 %5, 1
  store i64 %6, ptr %4, align 8, !tbaa !44
  %7 = getelementptr inbounds nuw i8, ptr %3, i64 72
  %8 = load ptr, ptr %7, align 8, !tbaa !36
  tail call void @SetToZero(ptr noundef %8) #5
  %9 = getelementptr inbounds nuw i8, ptr %3, i64 56
  %10 = load ptr, ptr %9, align 8, !tbaa !42
  %11 = getelementptr inbounds nuw i8, ptr %3, i64 8
  %12 = load i64, ptr %11, align 8, !tbaa !32
  %13 = getelementptr inbounds nuw i8, ptr %3, i64 24
  %14 = load i64, ptr %13, align 8, !tbaa !34
  %15 = getelementptr inbounds nuw i8, ptr %3, i64 16
  %16 = load i64, ptr %15, align 8, !tbaa !33
  %17 = getelementptr inbounds nuw i8, ptr %0, i64 264
  %18 = load ptr, ptr %17, align 8, !tbaa !45
  %19 = getelementptr inbounds nuw i8, ptr %0, i64 280
  %20 = load ptr, ptr %19, align 8, !tbaa !46
  %21 = load ptr, ptr %7, align 8, !tbaa !36
  %22 = getelementptr inbounds nuw i8, ptr %3, i64 64
  %23 = load ptr, ptr %22, align 8, !tbaa !41
  %24 = getelementptr inbounds nuw i8, ptr %0, i64 328
  %25 = load ptr, ptr %24, align 8, !tbaa !3
  %26 = getelementptr inbounds nuw i8, ptr %0, i64 336
  %27 = load ptr, ptr %26, align 8, !tbaa !47
  %28 = tail call i32 %10(i64 noundef %12, i64 noundef %14, i64 noundef %16, ptr noundef %18, ptr noundef %20, ptr noundef %21, ptr noundef %23, ptr noundef %25, ptr noundef %27) #5
  %.not = icmp eq i32 %28, 0
  br i1 %.not, label %29, label %35

29:                                               ; preds = %1
  %30 = load ptr, ptr %7, align 8, !tbaa !36
  %31 = getelementptr inbounds nuw i8, ptr %3, i64 88
  %32 = load ptr, ptr %31, align 8, !tbaa !37
  %33 = tail call i64 @BandGBTRF(ptr noundef %30, ptr noundef %32) #5
  %34 = icmp sgt i64 %33, 0
  %. = sext i1 %34 to i32
  br label %35

35:                                               ; preds = %1, %29
  %.sink = phi i64 [ %33, %29 ], [ -1, %1 ]
  %.0 = phi i32 [ %., %29 ], [ -1, %1 ]
  %36 = getelementptr inbounds nuw i8, ptr %3, i64 112
  store i64 %.sink, ptr %36, align 8, !tbaa !30
  ret i32 %.0
}